; Function Attrs: nounwind uwtable
define hidden range(i32 -2147483647, -2147483648) i32 @uv__async_fork(ptr noundef %0) local_unnamed_addr #0 {
  %2 = alloca %struct.uv__queue, align 8
  call void @llvm.lifetime.start.p0(i64 16, ptr nonnull %2) #8
  %3 = getelementptr inbounds nuw i8, ptr %0, i64 456
  %4 = getelementptr inbounds nuw i8, ptr %0, i64 504
  %5 = load i32, ptr %4, align 8
  %6 = icmp eq i32 %5, -1
  br i1 %6, label %uv__async_start.exit, label %7

7:                                                ; preds = %1
  %8 = getelementptr inbounds nuw i8, ptr %0, i64 432
  %9 = load ptr, ptr %8, align 8
  %.not.i = icmp eq ptr %8, %9
  br i1 %.not.i, label %uv__queue_move.exit.thread, label %uv__queue_move.exit

uv__queue_move.exit.thread:                       ; preds = %7
  store ptr %2, ptr %2, align 8
  %10 = getelementptr inbounds nuw i8, ptr %2, i64 8
  store ptr %2, ptr %10, align 8
  br label %._crit_edge

uv__queue_move.exit:                              ; preds = %7
  %11 = getelementptr inbounds nuw i8, ptr %0, i64 440
  %12 = load ptr, ptr %11, align 8
  %13 = getelementptr inbounds nuw i8, ptr %2, i64 8
  store ptr %12, ptr %13, align 8
  store ptr %2, ptr %12, align 8
  store ptr %9, ptr %2, align 8
  %14 = getelementptr inbounds nuw i8, ptr %9, i64 8
  %15 = load ptr, ptr %14, align 8
  store ptr %15, ptr %11, align 8
  store ptr %8, ptr %15, align 8
  store ptr %2, ptr %14, align 8
  %.pre = load ptr, ptr %2, align 8
  %.not22 = icmp eq ptr %2, %.pre
  br i1 %.not22, label %._crit_edge, label %.lr.ph

.lr.ph:                                           ; preds = %uv__queue_move.exit
  %16 = getelementptr inbounds nuw i8, ptr %0, i64 440
  br label %17

17:                                               ; preds = %.lr.ph, %17
  %18 = phi ptr [ %.pre, %.lr.ph ], [ %27, %17 ]
  %19 = load ptr, ptr %18, align 8
  %20 = getelementptr inbounds nuw i8, ptr %18, i64 8
  %21 = load ptr, ptr %20, align 8
  store ptr %19, ptr %21, align 8
  %22 = load ptr, ptr %20, align 8
  %23 = getelementptr inbounds nuw i8, ptr %19, i64 8
  store ptr %22, ptr %23, align 8
  store ptr %8, ptr %18, align 8
  %24 = load ptr, ptr %16, align 8
  store ptr %24, ptr %20, align 8
  store ptr %18, ptr %24, align 8
  store ptr %18, ptr %16, align 8
  %25 = getelementptr inbounds nuw i8, ptr %18, i64 16
  store i32 0, ptr %25, align 8
  %26 = getelementptr inbounds i8, ptr %18, i64 -56
  store i32 0, ptr %26, align 8
  %27 = load ptr, ptr %2, align 8
  %.not = icmp eq ptr %2, %27
  br i1 %.not, label %._crit_edge, label %17

._crit_edge:                                      ; preds = %17, %uv__queue_move.exit.thread, %uv__queue_move.exit
  %28 = getelementptr inbounds nuw i8, ptr %0, i64 512
  %29 = load i32, ptr %28, align 8
  %.not19 = icmp eq i32 %29, -1
  br i1 %.not19, label %35, label %30

30:                                               ; preds = %._crit_edge
  %31 = load i32, ptr %4, align 8
  %.not20 = icmp eq i32 %29, %31
  br i1 %.not20, label %34, label %32

32:                                               ; preds = %30
  %33 = call i32 @uv__close(i32 noundef %29) #8
  br label %34

34:                                               ; preds = %32, %30
  store i32 -1, ptr %28, align 8
  br label %35

35:                                               ; preds = %._crit_edge, %34
  call void @uv__io_stop(ptr noundef nonnull %0, ptr noundef nonnull %3, i32 noundef 1) #8
  %36 = load i32, ptr %4, align 8
  %37 = call i32 @uv__close(i32 noundef %36) #8
  store i32 -1, ptr %4, align 8
  %38 = call i32 @eventfd(i32 noundef 0, i32 noundef 526336) #8
  %39 = icmp slt i32 %38, 0
  br i1 %39, label %40, label %44

40:                                               ; preds = %35
  %41 = tail call ptr @__errno_location() #9
  %42 = load i32, ptr %41, align 4
  %43 = sub nsw i32 0, %42
  br label %uv__async_start.exit

44:                                               ; preds = %35
  call void @uv__io_init(ptr noundef nonnull %3, ptr noundef nonnull @uv__async_io, i32 noundef %38) #8
  call void @uv__io_start(ptr noundef nonnull %0, ptr noundef nonnull %3, i32 noundef 1) #8
  store i32 -1, ptr %28, align 8
  br label %uv__async_start.exit

uv__async_start.exit:                             ; preds = %44, %40, %1
  %.0 = phi i32 [ 0, %1 ], [ %43, %40 ], [ 0, %44 ]
  call void @llvm.lifetime.end.p0(i64 16, ptr nonnull %2) #8
  ret i32 %.0
}